Certificate:
    Data:
        Version: 3 (0x2)
        Serial Number: 1193046 (0x123456)
        Signature Algorithm: sha256WithRSAEncryption
        Issuer: C=US, ST=CA, L=San Jose, O=Global Sign, Inc., CN=globalsign.com
        Validity
            Not Before: Nov  5 22:48:10 2024 GMT
            Not After : Nov  5 22:48:10 2025 GMT
        Subject: C=US, ST=CO, L=Denver, O=Machinery, Inc., CN=apps.machinery.com
        Subject Public Key Info:
            Public Key Algorithm: rsaEncryption
                RSA Public-Key: (2048 bit)
                Modulus:
                    00:bd:58:91:99:55:66:ac:b1:5d:86:2b:f8:ca:3c:
                    8a:ec:d4:8a:b3:cb:51:f4:bd:d1:73:9d:34:3c:e0:
                    e7:32:56:ab:94:7f:19:17:35:06:1e:6b:e1:cc:a3:
                    24:43:02:31:7e:a7:c4:a7:c8:ca:c1:aa:04:0c:5f:
                    db:a0:44:eb:7e:6c:e5:94:02:ec:62:e3:75:fa:13:
                    88:3b:e7:4b:79:7b:52:41:fe:32:80:e5:31:22:42:
                    47:7f:75:b2:ca:a6:48:f5:2c:ec:78:4c:a6:5a:7e:
                    20:db:0b:5d:40:81:88:b7:89:4f:c7:73:b4:1d:b7:
                    02:d0:c7:08:0d:e9:ee:3f:8f:98:58:f6:e1:44:91:
                    14:43:e1:0f:1a:fe:8f:f6:0b:d1:6c:50:8c:7e:af:
                    34:3b:aa:1c:ff:43:4d:38:4f:6e:4f:58:52:4a:18:
                    53:fc:91:41:5d:df:cb:8a:52:ea:88:6b:fa:2b:19:
                    53:b8:be:c6:c9:0d:69:cb:6e:e5:ea:91:6f:50:d1:
                    d6:7e:35:30:ff:4a:57:24:64:51:09:23:c7:cf:ae:
                    bf:d2:38:02:f3:f4:dd:ba:17:32:56:1c:f4:9d:86:
                    20:7c:60:3d:be:c5:25:dd:82:9e:1e:ef:eb:9f:6b:
                    48:22:80:8e:ff:45:0b:d6:cb:15:6a:66:69:52:6a:
                    22:39
                Exponent: 65537 (0x10001)
        X509v3 extensions:
            X509v3 Basic Constraints: 
                CA:FALSE
            Netscape Comment: 
                OpenSSL Generated Certificate
            X509v3 Subject Key Identifier: 
                4C:8A:59:F6:C9:1A:9A:A8:78:F3:8E:C6:F2:A6:6A:3E:84:FB:54:29
            X509v3 Authority Key Identifier: 
                keyid:13:19:E2:39:C3:B7:31:C2:03:53:9F:FF:C2:C9:9E:6F:38:C6:28:2C

    Signature Algorithm: sha256WithRSAEncryption
         05:86:c8:ea:19:80:87:b9:b0:82:3e:99:36:ed:3d:aa:ab:ba:
         da:83:6d:3f:00:bc:4e:0a:03:da:e9:a9:98:78:86:43:02:f8:
         ae:92:b2:18:9c:ba:9e:bc:98:8b:61:31:89:89:60:dc:31:03:
         1e:8c:a9:de:14:f9:82:5f:e6:46:68:3c:d9:51:91:5d:30:7b:
         67:5c:59:8a:9c:9f:9c:dc:49:48:ec:42:ef:dc:26:2a:2f:76:
         0e:35:f8:77:11:88:e8:bb:9e:88:69:2a:a1:11:b9:35:6b:5f:
         86:15:38:e4:6d:18:ba:99:da:b5:17:0c:bc:6a:19:d1:5d:9b:
         f8:9e:1a:d6:e6:aa:57:72:e4:1c:e7:6b:8e:b4:d2:27:b8:41:
         f9:28:1d:01:d3:51:fd:74:45:99:23:b6:bc:e5:a7:e6:29:a1:
         80:44:6c:76:21:ac:0f:de:a3:cb:b0:10:95:0a:5a:70:64:52:
         6b:a4:a4:7c:75:25:95:12:24:79:ce:ae:e9:2f:43:02:f4:11:
         69:2b:1b:99:10:c6:57:9f:18:63:ba:30:86:80:81:1d:a8:32:
         f4:0b:53:94:a4:53:01:84:df:cf:dd:f8:4b:07:ba:fd:24:86:
         61:3e:a5:8e:cd:6f:90:68:af:2a:79:88:3e:db:81:f2:e2:8f:
         34:98:02:d3:9b:76:76:ee:d5:35:b3:59:ab:af:39:d4:fd:f1:
         70:71:c8:92:ca:96:95:b0:8f:a2:13:95:19:e9:e3:0e:ef:b4:
         1e:7f:4d:12:d2:22:da:b3:1f:b1:31:95:c6:79:36:a2:dc:c7:
         89:4e:13:08:8a:61:ba:81:d6:13:a8:cf:9f:fc:33:0a:87:6d:
         8c:d9:db:c9:9c:58:56:8a:e7:2b:36:15:97:f0:8d:f3:91:98:
         5e:cd:4d:4f:f3:cc:df:bd:36:b9:85:ed:69:0b:92:28:8f:66:
         fd:6e:ac:f6:ae:91:db:8b:91:e5:96:5b:87:7c:9c:b0:8f:62:
         e4:df:c7:5c:37:7b:a6:54:02:14:4a:a2:94:9e:65:c5:cd:3e:
         49:02:5f:4b:04:3f:eb:82:a9:18:9d:97:87:68:20:99:e8:a9:
         6f:37:55:ad:22:90:34:88:6d:bd:d3:bc:89:df:e3:a2:c4:25:
         83:ec:24:6d:87:eb:57:57:4e:02:2b:d9:df:cd:2b:02:60:24:
         ac:48:28:d6:75:5e:e7:f9:ee:e7:1e:e1:68:f4:e9:8a:f4:50:
         15:fc:9c:de:de:d3:7b:f7:56:9a:e0:db:fb:87:d9:10:cf:b7:
         ce:77:be:3d:46:42:e8:ed:63:da:5c:d9:54:83:0f:ed:13:aa:
         06:db:53:e7:4e:43:20:e6
-----BEGIN CERTIFICATE-----
MIIEvDCCAqSgAwIBAgIDEjRWMA0GCSqGSIb3DQEBCwUAMGIxCzAJBgNVBAYTAlVT
MQswCQYDVQQIDAJDQTERMA8GA1UEBwwIU2FuIEpvc2UxGjAYBgNVBAoMEUdsb2Jh
bCBTaWduLCBJbmMuMRcwFQYDVQQDDA5nbG9iYWxzaWduLmNvbTAeFw0yNDExMDUy
MjQ4MTBaFw0yNTExMDUyMjQ4MTBaMGIxCzAJBgNVBAYTAlVTMQswCQYDVQQIDAJD
TzEPMA0GA1UEBwwGRGVudmVyMRgwFgYDVQQKDA9NYWNoaW5lcnksIEluYy4xGzAZ
BgNVBAMMEmFwcHMubWFjaGluZXJ5LmNvbTCCASIwDQYJKoZIhvcNAQEBBQADggEP
ADCCAQoCggEBAL1YkZlVZqyxXYYr+Mo8iuzUirPLUfS90XOdNDzg5zJWq5R/GRc1
Bh5r4cyjJEMCMX6nxKfIysGqBAxf26BE635s5ZQC7GLjdfoTiDvnS3l7UkH+MoDl
MSJCR391ssqmSPUs7HhMplp+INsLXUCBiLeJT8dztB23AtDHCA3p7j+PmFj24USR
FEPhDxr+j/YL0WxQjH6vNDuqHP9DTThPbk9YUkoYU/yRQV3fy4pS6ohr+isZU7i+
xskNactu5eqRb1DR1n41MP9KVyRkUQkjx8+uv9I4AvP03boXMlYc9J2GIHxgPb7F
Jd2Cnh7v659rSCKAjv9FC9bLFWpmaVJqIjkCAwEAAaN7MHkwCQYDVR0TBAIwADAs
BglghkgBhvhCAQ0EHxYdT3BlblNTTCBHZW5lcmF0ZWQgQ2VydGlmaWNhdGUwHQYD
VR0OBBYEFEyKWfbJGpqoePOOxvKmaj6E+1QpMB8GA1UdIwQYMBaAFBMZ4jnDtzHC
A1Of/8LJnm84xigsMA0GCSqGSIb3DQEBCwUAA4ICAQAFhsjqGYCHubCCPpk27T2q
q7rag20/ALxOCgPa6amYeIZDAviukrIYnLqevJiLYTGJiWDcMQMejKneFPmCX+ZG
aDzZUZFdMHtnXFmKnJ+c3ElI7ELv3CYqL3YONfh3EYjou56IaSqhEbk1a1+GFTjk
bRi6mdq1Fwy8ahnRXZv4nhrW5qpXcuQc52uOtNInuEH5KB0B01H9dEWZI7a85afm
KaGARGx2IawP3qPLsBCVClpwZFJrpKR8dSWVEiR5zq7pL0MC9BFpKxuZEMZXnxhj
ujCGgIEdqDL0C1OUpFMBhN/P3fhLB7r9JIZhPqWOzW+QaK8qeYg+24Hy4o80mALT
m3Z27tU1s1mrrznU/fFwcciSypaVsI+iE5UZ6eMO77Qef00S0iLasx+xMZXGeTai
3MeJThMIimG6gdYTqM+f/DMKh22M2dvJnFhWiucrNhWX8I3zkZhezU1P88zfvTa5
he1pC5Ioj2b9bqz2rpHbi5HllluHfJywj2Lk38dcN3umVAIUSqKUnmXFzT5JAl9L
BD/rgqkYnZeHaCCZ6KlvN1WtIpA0iG2907yJ3+OixCWD7CRth+tXV04CK9nfzSsC
YCSsSCjWdV7n+e7nHuFo9OmK9FAV/Jze3tN791aa4Nv7h9kQz7fOd749RkLo7WPa
XNlUgw/tE6oG21PnTkMg5g==
-----END CERTIFICATE-----
