Certificate:
    Data:
        Version: 3 (0x2)
        Serial Number: 1193049 (0x123459)
        Signature Algorithm: sha256WithRSAEncryption
        Issuer: C=US, ST=CO, L=Denver, O=Machinery, Inc., CN=machinery.com
        Validity
            Not Before: Nov  5 22:38:58 2024 GMT
            Not After : Nov  5 22:38:58 2025 GMT
        Subject: C=US, ST=OH, L=Cincinnati, O=Machinery, Inc., CN=controller.machinery.com
        Subject Public Key Info:
            Public Key Algorithm: rsaEncryption
                RSA Public-Key: (2048 bit)
                Modulus:
                    00:bf:e4:3c:26:eb:e7:52:10:eb:3a:5d:d7:0b:31:
                    49:db:84:20:88:fb:67:69:9e:01:70:31:60:e8:67:
                    fd:a3:9e:48:b3:97:0f:94:fb:a2:a4:29:76:7f:44:
                    ed:a9:d4:4d:54:f7:af:49:1a:97:90:c4:b2:bc:b0:
                    2d:bc:af:7b:0f:85:e1:1c:be:27:11:df:24:15:da:
                    83:9c:ee:38:68:25:bf:dd:0c:be:66:37:95:26:b4:
                    b4:ed:73:30:bf:57:0f:f3:1c:57:89:63:03:b6:07:
                    b6:f7:f3:b8:82:66:af:81:34:ea:d5:02:d6:83:fd:
                    53:f0:dc:c9:fb:b1:c2:e3:d6:17:e7:7e:bb:ca:13:
                    5e:ae:0c:c6:5f:a3:8d:f0:2c:cb:5e:c8:d8:6e:17:
                    f5:f7:cb:c0:3c:4b:98:d7:b2:76:d3:cc:96:57:d8:
                    31:77:7a:f9:ad:f6:9b:68:1e:03:b5:c9:f2:4e:a1:
                    86:5e:09:bc:0f:04:11:70:77:7f:21:fc:1d:c0:be:
                    53:69:73:a2:dc:e9:a0:10:38:28:6e:2a:ee:86:05:
                    f8:24:9c:d9:2a:d3:c4:8a:cd:8c:38:ea:98:35:10:
                    cb:a4:5a:75:55:df:89:32:3c:42:4b:56:d1:93:78:
                    98:63:33:54:cc:e9:8c:be:27:4e:df:fb:8c:c9:08:
                    40:67
                Exponent: 65537 (0x10001)
        X509v3 extensions:
            X509v3 Basic Constraints: 
                CA:FALSE
            Netscape Comment: 
                OpenSSL Generated Certificate
            X509v3 Subject Key Identifier: 
                5A:EF:CA:31:99:D3:F2:01:F7:FD:BE:FA:DE:62:1C:8A:05:8F:96:93
            X509v3 Authority Key Identifier: 
                keyid:59:81:6B:1B:82:5F:B8:08:C4:C0:E3:E7:16:2D:4B:79:34:59:0E:09

    Signature Algorithm: sha256WithRSAEncryption
         5c:5c:42:24:98:18:4e:27:26:29:3e:5c:37:66:4a:86:2d:bd:
         80:d3:8b:d4:c1:d2:ac:ba:38:16:c7:20:e4:cb:24:2f:6b:19:
         01:99:52:c6:54:0a:d6:27:7f:83:0d:09:b2:17:68:15:7a:e9:
         9a:8e:29:af:78:7d:6b:5d:b0:00:32:fb:3d:e0:02:74:78:b3:
         0a:5c:3d:43:14:a2:4e:8a:c5:8b:39:15:37:e0:5b:cd:84:b1:
         9c:11:f9:24:b4:0b:53:4c:1d:d3:bb:4d:1b:e1:f5:78:67:88:
         e9:cf:6a:e9:64:a9:e5:35:91:c8:e5:86:7c:df:32:44:15:30:
         16:27:a7:3c:f1:89:07:03:72:cf:02:3b:56:40:cc:f6:60:eb:
         39:d7:df:8f:9b:36:cb:98:89:b6:1d:9b:fc:4e:a5:84:b8:c5:
         66:5d:01:e8:82:8f:84:a2:5a:22:38:a2:f0:98:3b:b1:06:82:
         2f:26:2b:86:6d:7d:8b:13:5f:e7:08:30:27:a0:1e:c1:a1:54:
         46:db:bb:e1:0e:a0:d6:81:d7:e6:ee:45:79:6c:fb:7c:d8:42:
         b1:e9:0a:b6:f2:28:d6:51:31:ea:f3:cb:70:94:38:55:f5:41:
         38:9f:bf:c1:e0:90:95:b9:bb:4d:2a:03:33:a5:ec:77:63:30:
         4e:0d:61:3d:18:5c:64:1b:ba:96:0a:f8:5a:38:04:31:ee:20:
         82:87:c3:e0:b7:fd:cc:e9:cd:bd:ca:87:a9:81:d7:90:45:8c:
         56:f7:35:50:83:ec:e4:74:23:e1:e5:73:24:54:bb:4a:72:84:
         a1:2c:44:57:54:20:6a:4b:8e:22:9a:d8:11:a6:fd:9c:b0:07:
         28:b9:11:42:52:29:4f:ab:e0:ce:90:85:cb:7f:2e:c3:ef:72:
         e4:6a:d9:3b:3e:28:52:40:ed:5b:ce:e2:84:00:7a:19:19:52:
         8c:0b:a0:41:bc:86:43:97:36:e3:f7:6b:cd:fe:33:6c:f9:32:
         e6:7c:29:27:a0:08:3a:dc:cf:89:2b:64:07:e4:9d:17:60:34:
         25:20:73:a1:a4:1e:96:a5:f2:eb:ac:26:97:2e:2c:47:70:ad:
         be:59:88:12:3b:95:cd:87:88:53:c9:1d:ef:ad:fd:24:84:dd:
         f4:08:82:7b:f5:b0:39:8f:44:d7:5b:bf:b8:1a:70:8c:54:99:
         b4:e5:34:8a:a4:44:dd:95:96:61:70:6f:20:41:00:a3:f7:ca:
         5f:4e:22:8f:0a:4f:73:ef:09:29:c1:bf:f7:76:a7:53:9a:ac:
         b4:99:7e:82:60:e5:10:c2:59:22:d6:0c:85:05:ce:5f:e3:28:
         1e:60:38:68:da:96:0a:12
-----BEGIN CERTIFICATE-----
MIIEwTCCAqmgAwIBAgIDEjRZMA0GCSqGSIb3DQEBCwUAMF0xCzAJBgNVBAYTAlVT
MQswCQYDVQQIDAJDTzEPMA0GA1UEBwwGRGVudmVyMRgwFgYDVQQKDA9NYWNoaW5l
cnksIEluYy4xFjAUBgNVBAMMDW1hY2hpbmVyeS5jb20wHhcNMjQxMTA1MjIzODU4
WhcNMjUxMTA1MjIzODU4WjBsMQswCQYDVQQGEwJVUzELMAkGA1UECAwCT0gxEzAR
BgNVBAcMCkNpbmNpbm5hdGkxGDAWBgNVBAoMD01hY2hpbmVyeSwgSW5jLjEhMB8G
A1UEAwwYY29udHJvbGxlci5tYWNoaW5lcnkuY29tMIIBIjANBgkqhkiG9w0BAQEF
AAOCAQ8AMIIBCgKCAQEAv+Q8JuvnUhDrOl3XCzFJ24QgiPtnaZ4BcDFg6Gf9o55I
s5cPlPuipCl2f0TtqdRNVPevSRqXkMSyvLAtvK97D4XhHL4nEd8kFdqDnO44aCW/
3Qy+ZjeVJrS07XMwv1cP8xxXiWMDtge29/O4gmavgTTq1QLWg/1T8NzJ+7HC49YX
5367yhNergzGX6ON8CzLXsjYbhf198vAPEuY17J208yWV9gxd3r5rfabaB4Dtcny
TqGGXgm8DwQRcHd/IfwdwL5TaXOi3OmgEDgobiruhgX4JJzZKtPEis2MOOqYNRDL
pFp1Vd+JMjxCS1bRk3iYYzNUzOmMvidO3/uMyQhAZwIDAQABo3sweTAJBgNVHRME
AjAAMCwGCWCGSAGG+EIBDQQfFh1PcGVuU1NMIEdlbmVyYXRlZCBDZXJ0aWZpY2F0
ZTAdBgNVHQ4EFgQUWu/KMZnT8gH3/b763mIcigWPlpMwHwYDVR0jBBgwFoAUWYFr
G4JfuAjEwOPnFi1LeTRZDgkwDQYJKoZIhvcNAQELBQADggIBAFxcQiSYGE4nJik+
XDdmSoYtvYDTi9TB0qy6OBbHIOTLJC9rGQGZUsZUCtYnf4MNCbIXaBV66ZqOKa94
fWtdsAAy+z3gAnR4swpcPUMUok6KxYs5FTfgW82EsZwR+SS0C1NMHdO7TRvh9Xhn
iOnPaulkqeU1kcjlhnzfMkQVMBYnpzzxiQcDcs8CO1ZAzPZg6znX34+bNsuYibYd
m/xOpYS4xWZdAeiCj4SiWiI4ovCYO7EGgi8mK4ZtfYsTX+cIMCegHsGhVEbbu+EO
oNaB1+buRXls+3zYQrHpCrbyKNZRMerzy3CUOFX1QTifv8HgkJW5u00qAzOl7Hdj
ME4NYT0YXGQbupYK+Fo4BDHuIIKHw+C3/czpzb3Kh6mB15BFjFb3NVCD7OR0I+Hl
cyRUu0pyhKEsRFdUIGpLjiKa2BGm/ZywByi5EUJSKU+r4M6Qhct/LsPvcuRq2Ts+
KFJA7VvO4oQAehkZUowLoEG8hkOXNuP3a83+M2z5MuZ8KSegCDrcz4krZAfknRdg
NCUgc6GkHpal8uusJpcuLEdwrb5ZiBI7lc2HiFPJHe+t/SSE3fQIgnv1sDmPRNdb
v7gacIxUmbTlNIqkRN2VlmFwbyBBAKP3yl9OIo8KT3PvCSnBv/d2p1OarLSZfoJg
5RDCWSLWDIUFzl/jKB5gOGjalgoS
-----END CERTIFICATE-----
