Certificate:
    Data:
        Version: 3 (0x2)
        Serial Number: 1193048 (0x123458)
        Signature Algorithm: sha256WithRSAEncryption
        Issuer: C=US, ST=CO, L=Denver, O=Machinery, Inc., CN=machinery.com
        Validity
            Not Before: Nov  5 22:34:25 2024 GMT
            Not After : Nov  5 22:34:25 2025 GMT
        Subject: C=US, ST=OH, L=Cincinnati, O=Machinery, Inc., CN=sensor-7G8H9I.machinery.com
        Subject Public Key Info:
            Public Key Algorithm: rsaEncryption
                RSA Public-Key: (2048 bit)
                Modulus:
                    00:b8:9b:68:69:3f:a2:37:ff:78:0b:37:ca:d5:b6:
                    3c:09:21:c4:36:a7:ea:96:99:c3:86:7a:46:82:ef:
                    c0:72:88:de:67:a5:3b:37:66:5c:d2:9a:35:2a:bb:
                    03:67:bd:6c:3c:cb:e0:0f:0d:a1:53:83:5c:ab:bc:
                    cc:2b:0c:35:12:dc:5f:84:17:37:35:df:e2:d7:1e:
                    bf:b9:3a:d4:e9:a5:5f:0f:6f:f5:e1:03:d5:1e:31:
                    96:9e:6c:dd:c5:4c:ef:24:52:f8:0a:43:eb:e3:26:
                    8f:8e:31:a1:06:1e:71:03:32:7e:98:2b:d9:52:c2:
                    b9:78:3a:e4:2e:0e:4d:74:e7:31:27:0a:b9:2a:93:
                    fa:15:1d:c4:38:96:23:90:79:e9:c4:fa:77:a2:d9:
                    aa:81:44:d3:9e:eb:17:f5:d7:42:10:59:f3:7b:a7:
                    3f:ce:72:5a:16:36:ca:5e:93:6c:59:d9:cb:3c:2b:
                    ee:a6:a0:a8:b8:10:e3:cf:c0:b7:85:2b:03:e9:23:
                    18:1f:10:c3:04:bc:92:23:06:42:54:4e:14:f6:bc:
                    87:9b:9e:1c:94:fe:6e:4c:ce:be:5e:7d:be:88:83:
                    00:25:a3:1a:c3:74:38:41:5f:cc:cc:b7:1b:7e:a7:
                    34:9b:28:d8:a1:f5:35:46:5c:e1:46:1b:de:f3:5e:
                    0a:35
                Exponent: 65537 (0x10001)
        X509v3 extensions:
            X509v3 Basic Constraints: 
                CA:FALSE
            Netscape Comment: 
                OpenSSL Generated Certificate
            X509v3 Subject Key Identifier: 
                45:20:EE:58:64:3C:77:61:63:A2:C0:EF:AE:06:84:BD:92:6A:A5:FB
            X509v3 Authority Key Identifier: 
                keyid:59:81:6B:1B:82:5F:B8:08:C4:C0:E3:E7:16:2D:4B:79:34:59:0E:09

    Signature Algorithm: sha256WithRSAEncryption
         9e:7e:38:3f:ee:9a:1c:f5:16:6e:5f:0e:86:fb:65:ba:48:be:
         c4:0a:aa:59:99:0b:4f:1d:33:ae:06:a1:fd:fc:99:f0:61:15:
         65:16:81:c8:84:27:37:d6:e8:c8:22:ed:7d:ed:d1:f6:89:4d:
         e4:cd:6b:d3:cd:bf:1d:75:4c:98:b7:eb:e0:56:6a:55:6a:5d:
         3d:ca:e7:a8:8c:dd:9a:d4:b1:10:3c:23:f9:6e:9c:bc:5f:63:
         8d:85:57:06:cc:f5:a0:03:3c:21:0b:ab:92:1a:e2:38:bd:86:
         87:c3:ec:4d:c6:f8:02:66:3f:0f:93:93:ec:56:88:b2:f6:e9:
         77:44:6a:86:ec:81:97:df:1a:63:fc:00:a4:d8:33:bc:ac:77:
         4c:0b:9f:4b:44:ee:19:02:c0:09:91:cb:12:c3:5f:9f:46:f6:
         73:86:a2:3d:02:0d:d7:91:09:28:b9:86:8e:6f:ae:25:3d:81:
         ec:e2:db:ad:7a:1b:24:2b:2b:c8:3d:39:35:ae:82:0d:72:43:
         e8:70:dd:1f:76:84:f1:c5:0e:e2:89:4b:0f:e8:13:df:44:92:
         fc:83:ed:aa:8b:55:dd:ab:40:8e:de:29:a2:d3:34:c0:a2:c2:
         ee:cb:9d:db:8c:aa:63:be:be:b5:40:2c:33:a1:83:b8:45:4f:
         27:71:8b:30:15:2a:ef:71:7c:2c:e6:00:d2:4a:f7:31:55:ce:
         fa:d9:78:a8:ba:7f:54:31:3c:06:fe:52:f1:e0:55:d6:a6:83:
         c0:e8:7d:fc:5e:bd:4d:64:28:7f:ba:f9:c5:ab:29:c8:59:d9:
         ce:85:92:ff:4c:10:d5:cf:39:e8:37:0d:5d:45:19:b3:fa:b4:
         e5:80:ec:e4:77:41:28:4c:67:89:46:3a:0b:c3:c4:3a:aa:8c:
         67:c8:ae:a3:a7:d2:ab:eb:15:2d:f9:6d:fb:34:b2:7b:4f:5b:
         d6:b1:63:55:5a:6f:7f:d5:d8:07:57:01:7d:e9:eb:c0:fc:34:
         a6:95:ab:6e:de:ed:26:eb:99:ae:b7:c8:ce:d1:4f:c2:22:e8:
         34:7d:2f:7c:35:0d:08:7f:42:f3:86:de:0a:33:20:29:63:dc:
         fc:ab:34:26:35:54:b0:86:c1:9c:1c:44:f1:78:fa:dc:f0:61:
         f7:82:6b:6e:bc:4f:60:63:c3:7c:ef:fc:f0:0d:2d:a4:ed:26:
         a4:cf:54:60:8d:bb:79:2c:54:83:c0:91:9b:41:a4:af:3c:37:
         ac:ee:41:89:0c:8a:bf:74:f3:45:ab:76:81:d5:16:25:47:56:
         b4:97:e3:66:1c:14:18:99:fa:5f:94:39:b4:4f:10:fe:c0:a0:
         a4:29:6a:29:21:3f:46:02
-----BEGIN CERTIFICATE-----
MIIExDCCAqygAwIBAgIDEjRYMA0GCSqGSIb3DQEBCwUAMF0xCzAJBgNVBAYTAlVT
MQswCQYDVQQIDAJDTzEPMA0GA1UEBwwGRGVudmVyMRgwFgYDVQQKDA9NYWNoaW5l
cnksIEluYy4xFjAUBgNVBAMMDW1hY2hpbmVyeS5jb20wHhcNMjQxMTA1MjIzNDI1
WhcNMjUxMTA1MjIzNDI1WjBvMQswCQYDVQQGEwJVUzELMAkGA1UECAwCT0gxEzAR
BgNVBAcMCkNpbmNpbm5hdGkxGDAWBgNVBAoMD01hY2hpbmVyeSwgSW5jLjEkMCIG
A1UEAwwbc2Vuc29yLTdHOEg5SS5tYWNoaW5lcnkuY29tMIIBIjANBgkqhkiG9w0B
AQEFAAOCAQ8AMIIBCgKCAQEAuJtoaT+iN/94CzfK1bY8CSHENqfqlpnDhnpGgu/A
cojeZ6U7N2Zc0po1KrsDZ71sPMvgDw2hU4Ncq7zMKww1EtxfhBc3Nd/i1x6/uTrU
6aVfD2/14QPVHjGWnmzdxUzvJFL4CkPr4yaPjjGhBh5xAzJ+mCvZUsK5eDrkLg5N
dOcxJwq5KpP6FR3EOJYjkHnpxPp3otmqgUTTnusX9ddCEFnze6c/znJaFjbKXpNs
WdnLPCvupqCouBDjz8C3hSsD6SMYHxDDBLySIwZCVE4U9ryHm54clP5uTM6+Xn2+
iIMAJaMaw3Q4QV/MzLcbfqc0myjYofU1RlzhRhve814KNQIDAQABo3sweTAJBgNV
HRMEAjAAMCwGCWCGSAGG+EIBDQQfFh1PcGVuU1NMIEdlbmVyYXRlZCBDZXJ0aWZp
Y2F0ZTAdBgNVHQ4EFgQURSDuWGQ8d2FjosDvrgaEvZJqpfswHwYDVR0jBBgwFoAU
WYFrG4JfuAjEwOPnFi1LeTRZDgkwDQYJKoZIhvcNAQELBQADggIBAJ5+OD/umhz1
Fm5fDob7ZbpIvsQKqlmZC08dM64Gof38mfBhFWUWgciEJzfW6Mgi7X3t0faJTeTN
a9PNvx11TJi36+BWalVqXT3K56iM3ZrUsRA8I/lunLxfY42FVwbM9aADPCELq5Ia
4ji9hofD7E3G+AJmPw+Tk+xWiLL26XdEaobsgZffGmP8AKTYM7ysd0wLn0tE7hkC
wAmRyxLDX59G9nOGoj0CDdeRCSi5ho5vriU9gezi2616GyQrK8g9OTWugg1yQ+hw
3R92hPHFDuKJSw/oE99EkvyD7aqLVd2rQI7eKaLTNMCiwu7LnduMqmO+vrVALDOh
g7hFTydxizAVKu9xfCzmANJK9zFVzvrZeKi6f1QxPAb+UvHgVdamg8DoffxevU1k
KH+6+cWrKchZ2c6Fkv9MENXPOeg3DV1FGbP6tOWA7OR3QShMZ4lGOgvDxDqqjGfI
rqOn0qvrFS35bfs0sntPW9axY1Vab3/V2AdXAX3p68D8NKaVq27e7Sbrma63yM7R
T8Ii6DR9L3w1DQh/QvOG3gozIClj3PyrNCY1VLCGwZwcRPF4+tzwYfeCa268T2Bj
w3zv/PANLaTtJqTPVGCNu3ksVIPAkZtBpK88N6zuQYkMir9080WrdoHVFiVHVrSX
42YcFBiZ+l+UObRPEP7AoKQpaikhP0YC
-----END CERTIFICATE-----
