Certificate:
    Data:
        Version: 3 (0x2)
        Serial Number: 1193046 (0x123456)
        Signature Algorithm: sha256WithRSAEncryption
        Issuer: C=US, ST=CO, L=Denver, O=Machinery, Inc., CN=machinery.com
        Validity
            Not Before: Nov  5 20:36:18 2024 GMT
            Not After : Nov  5 20:36:18 2025 GMT
        Subject: C=US, ST=OH, L=Cincinnati, O=Machinery, Inc., CN=sensor-1A2B3C.machinery.com
        Subject Public Key Info:
            Public Key Algorithm: rsaEncryption
                RSA Public-Key: (2048 bit)
                Modulus:
                    00:c4:53:41:2b:1d:a9:69:0d:ee:0b:13:87:dd:6a:
                    5c:61:1a:3f:06:2f:35:e3:df:e1:c8:15:80:2b:de:
                    40:d6:e9:07:82:a4:e0:d5:a3:58:72:9e:1a:21:30:
                    1f:25:b2:c2:27:33:e8:d8:d5:01:dd:8f:0b:24:c2:
                    48:3e:fa:93:87:29:b7:82:f7:c3:c8:f8:86:93:04:
                    87:39:5d:a1:00:4c:60:59:68:b6:75:51:d8:2e:6e:
                    d8:5f:90:db:b4:ab:59:19:ad:29:61:29:b0:78:a6:
                    38:a8:78:6d:53:08:17:0d:a7:dc:81:21:16:a3:13:
                    2d:76:1d:f2:5d:4a:8f:9b:30:8e:65:cc:d5:50:9b:
                    47:64:48:99:5c:ee:af:73:3f:0b:e4:6a:7e:61:d8:
                    f3:96:14:05:43:3e:a6:d6:73:75:d9:56:8a:d4:7d:
                    35:46:f8:1c:31:44:fc:b6:56:9c:6e:17:0f:61:20:
                    ef:dd:17:45:81:70:43:ab:58:a5:8b:1b:3e:c9:9b:
                    dd:25:84:ca:c8:ae:7d:36:db:ce:6b:59:29:b4:b5:
                    e3:e3:6f:1d:aa:bd:31:1b:3b:b2:42:d2:83:00:05:
                    fe:31:03:ec:48:a1:33:8b:ca:ff:a7:57:c3:e0:dd:
                    d1:c8:d3:87:ab:ec:d9:fe:8d:b7:30:6d:ca:2b:ea:
                    47:2d
                Exponent: 65537 (0x10001)
        X509v3 extensions:
            X509v3 Basic Constraints: 
                CA:FALSE
            Netscape Comment: 
                OpenSSL Generated Certificate
            X509v3 Subject Key Identifier: 
                D8:27:AC:A2:11:AD:11:2E:09:76:DB:8F:8B:2E:D3:71:8E:58:03:8D
            X509v3 Authority Key Identifier: 
                keyid:59:81:6B:1B:82:5F:B8:08:C4:C0:E3:E7:16:2D:4B:79:34:59:0E:09

    Signature Algorithm: sha256WithRSAEncryption
         8c:a2:fa:75:de:7b:8a:61:c1:64:72:50:49:5f:6b:a2:95:10:
         b9:4b:40:94:61:71:32:8e:fb:20:5d:91:3b:4d:00:dc:09:6f:
         1d:60:37:e3:6e:a6:5c:1e:1e:c2:0a:eb:4d:2c:dc:22:b4:39:
         82:54:f4:d2:04:43:26:b8:52:42:92:e3:b6:7b:27:c7:dd:ed:
         d3:e0:95:16:41:05:ed:a7:83:a4:e3:4f:e6:b5:b3:e8:06:28:
         cf:c6:5c:7f:bd:17:a1:51:73:3e:30:fe:f7:ae:21:96:8d:83:
         87:89:f6:87:3b:0c:b7:a4:34:14:76:50:27:1c:ad:e8:fa:23:
         fe:a1:64:82:c0:fe:ae:ee:66:73:86:2e:b9:75:57:ff:cd:50:
         85:f0:cf:86:b6:91:46:7a:ce:28:a8:34:88:2c:77:0f:32:67:
         c7:5a:01:5e:49:40:52:f4:4b:c7:a9:8e:85:3d:49:d6:5b:34:
         e5:8f:0a:3e:1b:11:67:7b:7b:d5:00:dd:18:5a:57:86:0e:72:
         46:4c:1c:21:1b:7b:8b:4f:a2:69:b4:e9:d5:64:88:1a:6f:5b:
         5c:a6:79:85:68:95:a9:76:7f:18:eb:8f:09:d2:91:d6:34:9f:
         64:a6:ae:4a:8e:1a:83:5e:2b:00:5a:bd:2a:e8:e9:6f:a9:bb:
         98:19:0f:c8:41:3d:05:de:36:42:29:5e:5d:e6:89:10:47:47:
         a2:f1:b5:1f:54:70:9e:ae:ae:c5:07:66:2c:fd:35:6c:a0:0b:
         57:0a:75:4d:e7:65:19:6f:7d:ac:03:f9:e9:1c:67:be:17:8f:
         f9:47:1b:92:44:52:67:10:31:f8:bf:f4:e8:9f:9e:fb:67:79:
         42:c0:68:41:03:1e:b1:0e:0f:3f:61:44:94:90:e9:c8:4e:75:
         2a:c0:6b:8b:c4:80:eb:18:a8:27:75:0d:45:79:4e:29:78:b3:
         ed:7e:bd:b6:61:23:17:26:d2:2a:83:20:da:38:22:50:5e:65:
         d6:6b:99:7d:8b:03:90:cf:93:36:00:ae:77:97:d9:16:65:3f:
         7b:b7:0d:7d:c8:7a:f6:8a:f0:b5:14:22:84:63:20:cd:e8:24:
         09:58:1c:22:d7:72:c9:1a:cc:b5:d5:78:7b:e8:bd:85:04:39:
         e6:86:1c:fb:e9:63:02:73:91:a7:ec:6d:9b:0b:cf:86:5d:58:
         c7:96:f4:bd:15:6c:7f:5d:1f:37:d6:82:71:76:fe:23:1c:a5:
         34:66:7b:70:09:d9:b3:14:61:32:5e:d3:76:b7:0e:ab:10:07:
         c3:73:68:7c:37:79:4b:10:76:03:c1:ee:49:19:35:1c:30:3c:
         5b:af:5c:a7:a9:a2:69:70
-----BEGIN CERTIFICATE-----
MIIExDCCAqygAwIBAgIDEjRWMA0GCSqGSIb3DQEBCwUAMF0xCzAJBgNVBAYTAlVT
MQswCQYDVQQIDAJDTzEPMA0GA1UEBwwGRGVudmVyMRgwFgYDVQQKDA9NYWNoaW5l
cnksIEluYy4xFjAUBgNVBAMMDW1hY2hpbmVyeS5jb20wHhcNMjQxMTA1MjAzNjE4
WhcNMjUxMTA1MjAzNjE4WjBvMQswCQYDVQQGEwJVUzELMAkGA1UECAwCT0gxEzAR
BgNVBAcMCkNpbmNpbm5hdGkxGDAWBgNVBAoMD01hY2hpbmVyeSwgSW5jLjEkMCIG
A1UEAwwbc2Vuc29yLTFBMkIzQy5tYWNoaW5lcnkuY29tMIIBIjANBgkqhkiG9w0B
AQEFAAOCAQ8AMIIBCgKCAQEAxFNBKx2paQ3uCxOH3WpcYRo/Bi8149/hyBWAK95A
1ukHgqTg1aNYcp4aITAfJbLCJzPo2NUB3Y8LJMJIPvqThym3gvfDyPiGkwSHOV2h
AExgWWi2dVHYLm7YX5DbtKtZGa0pYSmweKY4qHhtUwgXDafcgSEWoxMtdh3yXUqP
mzCOZczVUJtHZEiZXO6vcz8L5Gp+YdjzlhQFQz6m1nN12VaK1H01RvgcMUT8tlac
bhcPYSDv3RdFgXBDq1ilixs+yZvdJYTKyK59NtvOa1kptLXj428dqr0xGzuyQtKD
AAX+MQPsSKEzi8r/p1fD4N3RyNOHq+zZ/o23MG3KK+pHLQIDAQABo3sweTAJBgNV
HRMEAjAAMCwGCWCGSAGG+EIBDQQfFh1PcGVuU1NMIEdlbmVyYXRlZCBDZXJ0aWZp
Y2F0ZTAdBgNVHQ4EFgQU2CesohGtES4JdtuPiy7TcY5YA40wHwYDVR0jBBgwFoAU
WYFrG4JfuAjEwOPnFi1LeTRZDgkwDQYJKoZIhvcNAQELBQADggIBAIyi+nXee4ph
wWRyUElfa6KVELlLQJRhcTKO+yBdkTtNANwJbx1gN+NuplweHsIK600s3CK0OYJU
9NIEQya4UkKS47Z7J8fd7dPglRZBBe2ng6TjT+a1s+gGKM/GXH+9F6FRcz4w/veu
IZaNg4eJ9oc7DLekNBR2UCccrej6I/6hZILA/q7uZnOGLrl1V//NUIXwz4a2kUZ6
ziioNIgsdw8yZ8daAV5JQFL0S8epjoU9SdZbNOWPCj4bEWd7e9UA3RhaV4YOckZM
HCEbe4tPomm06dVkiBpvW1ymeYVolal2fxjrjwnSkdY0n2SmrkqOGoNeKwBavSro
6W+pu5gZD8hBPQXeNkIpXl3miRBHR6LxtR9UcJ6ursUHZiz9NWygC1cKdU3nZRlv
fawD+ekcZ74Xj/lHG5JEUmcQMfi/9OifnvtneULAaEEDHrEODz9hRJSQ6chOdSrA
a4vEgOsYqCd1DUV5Til4s+1+vbZhIxcm0iqDINo4IlBeZdZrmX2LA5DPkzYArneX
2RZlP3u3DX3IevaK8LUUIoRjIM3oJAlYHCLXcskazLXVeHvovYUEOeaGHPvpYwJz
kafsbZsLz4ZdWMeW9L0VbH9dHzfWgnF2/iMcpTRme3AJ2bMUYTJe03a3DqsQB8Nz
aHw3eUsQdgPB7kkZNRwwPFuvXKepomlw
-----END CERTIFICATE-----
