Certificate:
    Data:
        Version: 3 (0x2)
        Serial Number: 1193050 (0x12345a)
        Signature Algorithm: sha256WithRSAEncryption
        Issuer: C=US, ST=CO, L=Denver, O=Machinery, Inc., CN=machinery.com
        Validity
            Not Before: Nov  5 22:44:49 2024 GMT
            Not After : Nov  5 22:44:49 2025 GMT
        Subject: C=US, ST=CO, L=Denver, O=Machinery, Inc., CN=apps.machinery.com
        Subject Public Key Info:
            Public Key Algorithm: rsaEncryption
                RSA Public-Key: (2048 bit)
                Modulus:
                    00:bd:58:91:99:55:66:ac:b1:5d:86:2b:f8:ca:3c:
                    8a:ec:d4:8a:b3:cb:51:f4:bd:d1:73:9d:34:3c:e0:
                    e7:32:56:ab:94:7f:19:17:35:06:1e:6b:e1:cc:a3:
                    24:43:02:31:7e:a7:c4:a7:c8:ca:c1:aa:04:0c:5f:
                    db:a0:44:eb:7e:6c:e5:94:02:ec:62:e3:75:fa:13:
                    88:3b:e7:4b:79:7b:52:41:fe:32:80:e5:31:22:42:
                    47:7f:75:b2:ca:a6:48:f5:2c:ec:78:4c:a6:5a:7e:
                    20:db:0b:5d:40:81:88:b7:89:4f:c7:73:b4:1d:b7:
                    02:d0:c7:08:0d:e9:ee:3f:8f:98:58:f6:e1:44:91:
                    14:43:e1:0f:1a:fe:8f:f6:0b:d1:6c:50:8c:7e:af:
                    34:3b:aa:1c:ff:43:4d:38:4f:6e:4f:58:52:4a:18:
                    53:fc:91:41:5d:df:cb:8a:52:ea:88:6b:fa:2b:19:
                    53:b8:be:c6:c9:0d:69:cb:6e:e5:ea:91:6f:50:d1:
                    d6:7e:35:30:ff:4a:57:24:64:51:09:23:c7:cf:ae:
                    bf:d2:38:02:f3:f4:dd:ba:17:32:56:1c:f4:9d:86:
                    20:7c:60:3d:be:c5:25:dd:82:9e:1e:ef:eb:9f:6b:
                    48:22:80:8e:ff:45:0b:d6:cb:15:6a:66:69:52:6a:
                    22:39
                Exponent: 65537 (0x10001)
        X509v3 extensions:
            X509v3 Basic Constraints: 
                CA:FALSE
            Netscape Comment: 
                OpenSSL Generated Certificate
            X509v3 Subject Key Identifier: 
                4C:8A:59:F6:C9:1A:9A:A8:78:F3:8E:C6:F2:A6:6A:3E:84:FB:54:29
            X509v3 Authority Key Identifier: 
                keyid:59:81:6B:1B:82:5F:B8:08:C4:C0:E3:E7:16:2D:4B:79:34:59:0E:09

    Signature Algorithm: sha256WithRSAEncryption
         24:b8:6f:8d:07:fd:55:72:85:9f:8a:10:23:95:97:1a:b7:62:
         e3:2f:1b:ff:a1:23:8b:e2:bc:6b:3a:1f:8c:87:b6:a3:1d:32:
         18:12:b0:19:2d:cc:50:1e:ee:ad:ba:e8:43:70:ac:49:cc:5a:
         58:d2:f4:69:1c:d8:62:52:18:eb:68:1f:18:b3:99:db:60:49:
         fb:66:a8:64:70:27:50:49:f2:bd:0c:b1:59:78:b9:3c:a4:6a:
         f9:26:df:78:f4:20:af:61:58:ac:3f:c6:0d:54:71:c6:dd:7f:
         46:e4:6f:b3:d9:4e:2e:55:da:78:15:f3:f3:fb:b6:41:41:70:
         40:bf:e1:57:2d:98:2b:be:96:11:94:ab:d8:c0:bd:d8:44:04:
         55:8c:b0:cf:da:8a:14:91:70:47:31:36:3a:e9:18:27:25:65:
         65:a0:f3:07:fe:fc:17:d1:c6:2e:c8:96:3f:5c:4e:6b:44:45:
         41:a3:01:9a:c7:36:4e:79:ed:30:54:28:15:ae:24:bc:b1:a6:
         b1:b1:3b:28:a4:db:27:85:ff:4a:c7:4a:b6:60:7e:4f:46:50:
         66:a9:a1:60:e4:9f:aa:1c:ae:f0:6f:7b:2e:82:fd:7b:46:84:
         b8:f6:10:b1:fa:bc:01:e4:1d:4c:9a:e7:32:00:1b:3a:d8:34:
         af:6b:02:8d:75:79:b6:05:2b:b0:12:0f:0a:ad:30:52:88:af:
         19:34:d2:b7:0e:18:29:9f:2d:d3:5c:67:06:f6:82:b6:cf:15:
         66:4c:2a:62:f1:38:1f:f1:8b:42:f2:76:5a:fc:ff:05:d9:4a:
         1d:21:58:9e:a6:46:4f:cc:1c:dd:e2:e8:40:cd:74:47:65:46:
         28:9a:2a:ac:61:65:9f:1c:ad:78:5b:ae:5a:fc:6d:8d:ba:5c:
         9b:97:e1:7a:a6:73:4b:a2:9b:78:ef:f5:3d:11:0d:ce:a4:c6:
         74:60:72:2e:ff:ee:41:d9:ab:91:19:6a:87:86:35:3e:c8:aa:
         97:42:4e:32:95:06:27:85:2a:ad:f2:b6:42:92:99:d2:62:a1:
         04:1b:e0:65:23:14:15:1b:2c:14:0e:bb:9c:54:5c:0d:cb:4b:
         a5:96:f6:f2:26:b2:fd:1d:13:02:23:7a:b8:79:18:9a:ba:35:
         a5:5a:32:6f:ec:fc:62:60:10:6e:a1:1c:9d:c1:1e:7b:2f:e6:
         de:ea:37:12:4f:bf:5e:5e:b1:a1:76:02:92:c8:f7:18:2a:72:
         b4:45:6e:42:ce:fa:d1:29:d3:11:3a:e1:7e:7e:ac:f1:d9:36:
         5f:9d:7f:1e:9d:27:93:95:c3:f4:4f:8f:d2:be:e7:ed:61:d6:
         8c:2f:02:44:b8:41:da:de
-----BEGIN CERTIFICATE-----
MIIEtzCCAp+gAwIBAgIDEjRaMA0GCSqGSIb3DQEBCwUAMF0xCzAJBgNVBAYTAlVT
MQswCQYDVQQIDAJDTzEPMA0GA1UEBwwGRGVudmVyMRgwFgYDVQQKDA9NYWNoaW5l
cnksIEluYy4xFjAUBgNVBAMMDW1hY2hpbmVyeS5jb20wHhcNMjQxMTA1MjI0NDQ5
WhcNMjUxMTA1MjI0NDQ5WjBiMQswCQYDVQQGEwJVUzELMAkGA1UECAwCQ08xDzAN
BgNVBAcMBkRlbnZlcjEYMBYGA1UECgwPTWFjaGluZXJ5LCBJbmMuMRswGQYDVQQD
DBJhcHBzLm1hY2hpbmVyeS5jb20wggEiMA0GCSqGSIb3DQEBAQUAA4IBDwAwggEK
AoIBAQC9WJGZVWassV2GK/jKPIrs1Iqzy1H0vdFznTQ84OcyVquUfxkXNQYea+HM
oyRDAjF+p8SnyMrBqgQMX9ugROt+bOWUAuxi43X6E4g750t5e1JB/jKA5TEiQkd/
dbLKpkj1LOx4TKZafiDbC11AgYi3iU/Hc7QdtwLQxwgN6e4/j5hY9uFEkRRD4Q8a
/o/2C9FsUIx+rzQ7qhz/Q004T25PWFJKGFP8kUFd38uKUuqIa/orGVO4vsbJDWnL
buXqkW9Q0dZ+NTD/SlckZFEJI8fPrr/SOALz9N26FzJWHPSdhiB8YD2+xSXdgp4e
7+ufa0gigI7/RQvWyxVqZmlSaiI5AgMBAAGjezB5MAkGA1UdEwQCMAAwLAYJYIZI
AYb4QgENBB8WHU9wZW5TU0wgR2VuZXJhdGVkIENlcnRpZmljYXRlMB0GA1UdDgQW
BBRMiln2yRqaqHjzjsbypmo+hPtUKTAfBgNVHSMEGDAWgBRZgWsbgl+4CMTA4+cW
LUt5NFkOCTANBgkqhkiG9w0BAQsFAAOCAgEAJLhvjQf9VXKFn4oQI5WXGrdi4y8b
/6Eji+K8azofjIe2ox0yGBKwGS3MUB7urbroQ3CsScxaWNL0aRzYYlIY62gfGLOZ
22BJ+2aoZHAnUEnyvQyxWXi5PKRq+SbfePQgr2FYrD/GDVRxxt1/RuRvs9lOLlXa
eBXz8/u2QUFwQL/hVy2YK76WEZSr2MC92EQEVYywz9qKFJFwRzE2OukYJyVlZaDz
B/78F9HGLsiWP1xOa0RFQaMBmsc2TnntMFQoFa4kvLGmsbE7KKTbJ4X/SsdKtmB+
T0ZQZqmhYOSfqhyu8G97LoL9e0aEuPYQsfq8AeQdTJrnMgAbOtg0r2sCjXV5tgUr
sBIPCq0wUoivGTTStw4YKZ8t01xnBvaCts8VZkwqYvE4H/GLQvJ2Wvz/BdlKHSFY
nqZGT8wc3eLoQM10R2VGKJoqrGFlnxyteFuuWvxtjbpcm5fheqZzS6KbeO/1PREN
zqTGdGByLv/uQdmrkRlqh4Y1Psiql0JOMpUGJ4UqrfK2QpKZ0mKhBBvgZSMUFRss
FA67nFRcDctLpZb28iay/R0TAiN6uHkYmro1pVoyb+z8YmAQbqEcncEeey/m3uo3
Ek+/Xl6xoXYCksj3GCpytEVuQs760SnTETrhfn6s8dk2X51/Hp0nk5XD9E+P0r7n
7WHWjC8CRLhB2t4=
-----END CERTIFICATE-----
