Certificate:
    Data:
        Version: 3 (0x2)
        Serial Number: 1193047 (0x123457)
        Signature Algorithm: sha256WithRSAEncryption
        Issuer: C=US, ST=CO, L=Denver, O=Machinery, Inc., CN=machinery.com
        Validity
            Not Before: Nov  5 22:30:10 2024 GMT
            Not After : Nov  5 22:30:10 2025 GMT
        Subject: C=US, ST=OH, L=Cincinnati, O=Machinery, Inc., CN=sensor-4D5E6F.machinery.com
        Subject Public Key Info:
            Public Key Algorithm: rsaEncryption
                RSA Public-Key: (2048 bit)
                Modulus:
                    00:cf:5f:25:bf:60:16:d5:5d:ce:39:e7:e8:0a:fa:
                    cc:fa:53:72:33:70:8f:63:7c:46:d0:0f:45:f1:df:
                    6a:fa:25:12:5f:26:b4:d1:e5:f4:e2:91:2e:23:aa:
                    48:36:b7:2d:7f:a7:27:fb:e0:50:4a:54:94:e7:02:
                    5b:4f:80:f9:0d:81:78:17:a0:b7:ab:d5:f9:b6:8b:
                    a7:fa:60:f0:ad:40:d4:cf:30:9c:84:be:ae:87:f5:
                    0f:2f:f8:ec:46:1f:86:48:20:14:b5:0c:f5:e8:a5:
                    07:01:df:a2:fc:74:a7:6a:8c:3e:6b:3f:72:34:53:
                    7f:21:fd:7a:2d:ff:0b:ff:a4:55:d4:64:13:92:31:
                    05:5b:5f:33:0a:53:c0:50:4b:de:af:67:cd:8e:e4:
                    47:ce:86:8a:51:2b:25:e0:c9:b9:23:84:a3:29:02:
                    cb:76:46:25:82:ae:7a:a0:a2:70:7e:dd:25:b9:63:
                    43:41:c9:dc:5a:76:88:4f:91:de:bb:5a:36:76:d3:
                    92:9c:ce:a2:3e:e9:4e:15:c4:f2:9b:4b:48:7c:d4:
                    47:e1:88:94:f7:4e:52:e2:49:61:0d:00:a8:16:ab:
                    68:4a:70:d7:10:be:e5:69:dc:56:d4:ac:94:4e:a5:
                    0a:0f:d7:62:80:ae:77:38:86:5d:b3:a1:7e:b1:47:
                    a9:e1
                Exponent: 65537 (0x10001)
        X509v3 extensions:
            X509v3 Basic Constraints: 
                CA:FALSE
            Netscape Comment: 
                OpenSSL Generated Certificate
            X509v3 Subject Key Identifier: 
                F9:0F:69:01:80:0E:38:57:E3:78:5E:06:3C:6B:A6:61:30:36:4F:3A
            X509v3 Authority Key Identifier: 
                keyid:59:81:6B:1B:82:5F:B8:08:C4:C0:E3:E7:16:2D:4B:79:34:59:0E:09

    Signature Algorithm: sha256WithRSAEncryption
         90:60:35:f3:8c:72:52:d4:0d:71:5d:ee:28:61:48:85:ae:5d:
         8b:e9:b6:40:be:fa:c3:d1:9a:29:85:48:1b:e6:07:cb:87:ba:
         2c:a9:a0:db:45:a9:d4:89:d6:ff:d8:08:54:f8:fa:c2:2b:ab:
         06:e4:81:a3:79:80:72:f6:6c:7d:dd:c2:4b:7e:48:1b:81:68:
         fd:82:42:ff:52:7e:fd:33:23:55:c1:e6:4e:ca:ad:43:c4:a6:
         2b:48:15:34:a4:25:fa:39:02:a3:92:6c:e7:99:9a:cd:2e:ee:
         c7:35:63:51:cf:f0:2f:af:cc:70:73:52:b5:43:e8:3d:14:80:
         c4:44:28:ce:2e:38:51:f4:16:64:e0:49:13:60:60:b2:0a:b1:
         85:ac:1a:20:8c:41:1a:28:37:16:9a:15:9b:fe:06:e3:11:3c:
         43:42:40:94:33:a2:f9:23:d0:f3:9a:04:7c:e8:6f:d0:b3:69:
         cb:cc:bf:ad:7c:58:d3:c0:d6:30:8b:7c:d2:19:92:6e:5c:70:
         47:61:bd:c3:12:b0:82:64:e3:54:68:57:e1:8d:f2:e2:be:f0:
         04:cf:01:1b:76:0e:fc:24:86:d5:ad:a0:76:ed:c6:71:c9:f9:
         0f:32:3c:3b:66:40:0e:bc:d9:d7:23:29:b0:95:d0:66:4d:6b:
         ba:66:2c:77:17:11:fc:c7:53:90:1c:63:c3:85:6e:c8:14:1e:
         90:37:71:23:db:91:bc:de:15:92:37:74:ac:b9:93:4d:ab:16:
         bd:7e:d9:7e:df:60:ce:3c:b8:c6:3a:f8:56:f0:a1:99:b7:a2:
         46:57:dc:09:53:69:cd:80:eb:40:2c:f9:a3:2d:3e:49:74:ea:
         92:0f:e1:36:a8:38:bc:ec:99:1e:ca:07:94:45:aa:55:f0:56:
         b8:f1:c9:bc:16:90:df:0e:3a:d5:73:d1:3a:0c:1c:14:27:80:
         90:5f:43:9f:c7:b4:25:41:ee:c3:a5:26:c7:4c:9e:ef:80:a5:
         fc:b3:17:c6:4d:d3:15:66:65:e4:4a:eb:35:69:28:0a:b3:b2:
         e9:ae:30:82:10:13:c6:a8:1b:db:cf:0b:43:fe:1f:5b:e0:de:
         31:d1:ce:f5:de:e0:f1:df:4c:16:b0:31:9e:e4:2a:bd:8c:2c:
         a9:51:49:ca:2e:00:36:be:24:24:ae:c0:10:b4:44:1a:4d:2b:
         dc:5b:2d:4f:93:af:d3:ba:59:25:37:dc:9b:29:ff:ef:fa:c5:
         ac:f8:59:3e:6f:a5:74:93:93:ce:72:4b:7d:8a:83:8e:d3:95:
         ac:7f:23:a5:0e:ff:f7:dd:f6:cc:a2:ce:2e:e0:3b:56:bf:07:
         a9:a7:c3:ab:3c:c6:83:27
-----BEGIN CERTIFICATE-----
MIIExDCCAqygAwIBAgIDEjRXMA0GCSqGSIb3DQEBCwUAMF0xCzAJBgNVBAYTAlVT
MQswCQYDVQQIDAJDTzEPMA0GA1UEBwwGRGVudmVyMRgwFgYDVQQKDA9NYWNoaW5l
cnksIEluYy4xFjAUBgNVBAMMDW1hY2hpbmVyeS5jb20wHhcNMjQxMTA1MjIzMDEw
WhcNMjUxMTA1MjIzMDEwWjBvMQswCQYDVQQGEwJVUzELMAkGA1UECAwCT0gxEzAR
BgNVBAcMCkNpbmNpbm5hdGkxGDAWBgNVBAoMD01hY2hpbmVyeSwgSW5jLjEkMCIG
A1UEAwwbc2Vuc29yLTRENUU2Ri5tYWNoaW5lcnkuY29tMIIBIjANBgkqhkiG9w0B
AQEFAAOCAQ8AMIIBCgKCAQEAz18lv2AW1V3OOefoCvrM+lNyM3CPY3xG0A9F8d9q
+iUSXya00eX04pEuI6pINrctf6cn++BQSlSU5wJbT4D5DYF4F6C3q9X5toun+mDw
rUDUzzCchL6uh/UPL/jsRh+GSCAUtQz16KUHAd+i/HSnaow+az9yNFN/If16Lf8L
/6RV1GQTkjEFW18zClPAUEver2fNjuRHzoaKUSsl4Mm5I4SjKQLLdkYlgq56oKJw
ft0luWNDQcncWnaIT5Heu1o2dtOSnM6iPulOFcTym0tIfNRH4YiU905S4klhDQCo
FqtoSnDXEL7ladxW1KyUTqUKD9digK53OIZds6F+sUep4QIDAQABo3sweTAJBgNV
HRMEAjAAMCwGCWCGSAGG+EIBDQQfFh1PcGVuU1NMIEdlbmVyYXRlZCBDZXJ0aWZp
Y2F0ZTAdBgNVHQ4EFgQU+Q9pAYAOOFfjeF4GPGumYTA2TzowHwYDVR0jBBgwFoAU
WYFrG4JfuAjEwOPnFi1LeTRZDgkwDQYJKoZIhvcNAQELBQADggIBAJBgNfOMclLU
DXFd7ihhSIWuXYvptkC++sPRmimFSBvmB8uHuiypoNtFqdSJ1v/YCFT4+sIrqwbk
gaN5gHL2bH3dwkt+SBuBaP2CQv9Sfv0zI1XB5k7KrUPEpitIFTSkJfo5AqOSbOeZ
ms0u7sc1Y1HP8C+vzHBzUrVD6D0UgMREKM4uOFH0FmTgSRNgYLIKsYWsGiCMQRoo
NxaaFZv+BuMRPENCQJQzovkj0POaBHzob9CzacvMv618WNPA1jCLfNIZkm5ccEdh
vcMSsIJk41RoV+GN8uK+8ATPARt2DvwkhtWtoHbtxnHJ+Q8yPDtmQA682dcjKbCV
0GZNa7pmLHcXEfzHU5AcY8OFbsgUHpA3cSPbkbzeFZI3dKy5k02rFr1+2X7fYM48
uMY6+FbwoZm3okZX3AlTac2A60As+aMtPkl06pIP4TaoOLzsmR7KB5RFqlXwVrjx
ybwWkN8OOtVz0ToMHBQngJBfQ5/HtCVB7sOlJsdMnu+ApfyzF8ZN0xVmZeRK6zVp
KAqzsumuMIIQE8aoG9vPC0P+H1vg3jHRzvXe4PHfTBawMZ7kKr2MLKlRScouADa+
JCSuwBC0RBpNK9xbLU+Tr9O6WSU33Jsp/+/6xaz4WT5vpXSTk85yS32Kg47Tlax/
I6UO//fd9syizi7gO1a/B6mnw6s8xoMn
-----END CERTIFICATE-----
